; Function Attrs: mustprogress nounwind uwtable
define hidden void @_ZN4Node26ensure_control_or_add_precEPS_(ptr noundef nonnull align 8 dereferenceable(52) %0, ptr noundef %1) local_unnamed_addr #0 align 2 {
  %3 = getelementptr inbounds i8, ptr %0, i64 8
  %4 = load ptr, ptr %3, align 8
  %5 = load ptr, ptr %4, align 8
  %6 = icmp eq ptr %5, null
  br i1 %6, label %7, label %8

7:                                                ; preds = %2
  tail call void @_ZN4Node7set_reqEjPS_(ptr noundef nonnull align 8 dereferenceable(52) %0, i32 noundef 0, ptr noundef %1)
  br label %10

8:                                                ; preds = %2
  %.not = icmp eq ptr %5, %1
  br i1 %.not, label %10, label %9

9:                                                ; preds = %8
  tail call void @_ZN4Node8add_precEPS_(ptr noundef nonnull align 8 dereferenceable(52) %0, ptr noundef %1)
  br label %10

10:                                               ; preds = %8, %9, %7
  ret void
}